target datalayout = "e-m:e-p270:32:32-p271:32:32-p272:64:64-i64:64-i128:128-f80:128-n8:16:32:64-S128"
target triple = "x86_64-pc-linux-gnu"

%struct.sockaddr = type { i16, [14 x i8] }
%union.__SOCKADDR_ARG = type { ptr }
%struct.sockaddr_in = type { i16, i16, %struct.in_addr, [8 x i8] }
%struct.in_addr = type { i32 }

@str = internal global [16 x i8] zeroinitializer, align 16
@.str = private unnamed_addr constant [8 x i8] c"Unknown\00", align 1

; Function Attrs: nounwind uwtable
define ptr @pmix_fd_get_peer_name(i32 noundef %0) #0 {
  %2 = alloca ptr, align 8
  %3 = alloca i32, align 4
  %4 = alloca ptr, align 8
  %5 = alloca %struct.sockaddr, align 2
  %6 = alloca i32, align 4
  %7 = alloca i32, align 4
  %8 = alloca %union.__SOCKADDR_ARG, align 8
  %9 = alloca i32, align 4
  %10 = alloca ptr, align 8
  store i32 %0, ptr %3, align 4, !tbaa !3
  call void @llvm.lifetime.start.p0(i64 8, ptr %4) #6
  store ptr null, ptr %4, align 8, !tbaa !9
  call void @llvm.lifetime.start.p0(i64 16, ptr %5) #6
  call void @llvm.lifetime.start.p0(i64 4, ptr %6) #6
  store i32 16, ptr %6, align 4, !tbaa !3
  call void @llvm.lifetime.start.p0(i64 4, ptr %7) #6
  call void @llvm.memset.p0.i64(ptr align 16 @str, i8 0, i64 16, i1 false)
  %11 = load i32, ptr %3, align 4, !tbaa !3
  store ptr %5, ptr %8, align 8, !tbaa !18
  %12 = getelementptr inbounds nuw %union.__SOCKADDR_ARG, ptr %8, i32 0, i32 0
  %13 = load ptr, ptr %12, align 8
  %14 = call i32 @getpeername(i32 noundef %11, ptr %13, ptr noundef %6) #6
  store i32 %14, ptr %7, align 4, !tbaa !3
  %15 = load i32, ptr %7, align 4, !tbaa !3
  %16 = icmp ne i32 0, %15
  br i1 %16, label %17, label %19

17:                                               ; preds = %1
  call void @pmix_string_copy(ptr noundef @str, ptr noundef @.str, i64 noundef 15)
  store ptr @str, ptr %4, align 8, !tbaa !9
  %18 = load ptr, ptr %4, align 8, !tbaa !9
  store ptr %18, ptr %2, align 8
  store i32 1, ptr %9, align 4
  br label %31

19:                                               ; preds = %1
  %20 = getelementptr inbounds nuw %struct.sockaddr, ptr %5, i32 0, i32 0
  %21 = load i16, ptr %20, align 2, !tbaa !19
  %22 = zext i16 %21 to i32
  %23 = icmp eq i32 %22, 2
  br i1 %23, label %24, label %28

24:                                               ; preds = %19
  call void @llvm.lifetime.start.p0(i64 8, ptr %10) #6
  store ptr %5, ptr %10, align 8, !tbaa !22
  %25 = load ptr, ptr %10, align 8, !tbaa !22
  %26 = getelementptr inbounds nuw %struct.sockaddr_in, ptr %25, i32 0, i32 2
  %27 = call ptr @inet_ntop(i32 noundef 2, ptr noundef %26, ptr noundef @str, i32 noundef 16) #6
  store ptr %27, ptr %4, align 8, !tbaa !9
  call void @llvm.lifetime.end.p0(i64 8, ptr %10) #6
  br label %29

28:                                               ; preds = %19
  call void @llvm.memset.p0.i64(ptr align 16 @str, i8 0, i64 16, i1 false)
  call void @pmix_string_copy(ptr noundef @str, ptr noundef @.str, i64 noundef 15)
  store ptr @str, ptr %4, align 8, !tbaa !9
  br label %29

29:                                               ; preds = %28, %24
  %30 = load ptr, ptr %4, align 8, !tbaa !9
  store ptr %30, ptr %2, align 8
  store i32 1, ptr %9, align 4
  br label %31

31:                                               ; preds = %29, %17
  call void @llvm.lifetime.end.p0(i64 4, ptr %7) #6
  call void @llvm.lifetime.end.p0(i64 4, ptr %6) #6
  call void @llvm.lifetime.end.p0(i64 16, ptr %5) #6
  call void @llvm.lifetime.end.p0(i64 8, ptr %4) #6
  %32 = load ptr, ptr %2, align 8
  ret ptr %32
}