; Function Attrs: nounwind uwtable
define ptr @pmix_fd_get_peer_name(i32 noundef %0) local_unnamed_addr #4 {
  %2 = alloca %struct.sockaddr, align 2
  %3 = alloca i32, align 4
  call void @llvm.lifetime.start.p0(i64 16, ptr nonnull %2) #10
  call void @llvm.lifetime.start.p0(i64 4, ptr nonnull %3) #10
  store i32 16, ptr %3, align 4, !tbaa !3
  tail call void @llvm.memset.p0.i64(ptr noundef nonnull align 16 dereferenceable(16) @str, i8 0, i64 16, i1 false)
  %4 = call i32 @getpeername(i32 noundef %0, ptr nonnull %2, ptr noundef nonnull %3) #10
  %.not = icmp eq i32 %4, 0
  br i1 %.not, label %6, label %5

5:                                                ; preds = %1
  call void @pmix_string_copy(ptr noundef nonnull @str, ptr noundef nonnull @.str, i64 noundef 15) #10
  br label %13

6:                                                ; preds = %1
  %7 = load i16, ptr %2, align 2, !tbaa !10
  %8 = icmp eq i16 %7, 2
  br i1 %8, label %9, label %12

9:                                                ; preds = %6
  %10 = getelementptr inbounds nuw i8, ptr %2, i64 4
  %11 = call ptr @inet_ntop(i32 noundef 2, ptr noundef nonnull %10, ptr noundef nonnull @str, i32 noundef 16) #10
  br label %13

12:                                               ; preds = %6
  call void @llvm.memset.p0.i64(ptr noundef nonnull align 16 dereferenceable(16) @str, i8 0, i64 16, i1 false)
  call void @pmix_string_copy(ptr noundef nonnull @str, ptr noundef nonnull @.str, i64 noundef 15) #10
  br label %13

13:                                               ; preds = %9, %12, %5
  %.0 = phi ptr [ @str, %5 ], [ %11, %9 ], [ @str, %12 ]
  call void @llvm.lifetime.end.p0(i64 4, ptr nonnull %3) #10
  call void @llvm.lifetime.end.p0(i64 16, ptr nonnull %2) #10
  ret ptr %.0
}